target datalayout = "e-m:e-p270:32:32-p271:32:32-p272:64:64-i64:64-i128:128-f80:128-n8:16:32:64-S128"
target triple = "x86_64-pc-linux-gnu"

%struct.expert_field = type { i32, i32 }
%struct._address = type { i32, i32, ptr, ptr }
%struct._packet_info = type { ptr, ptr, i32, i32, %struct.nstime_t, %struct.nstime_t, %struct.nstime_t, i8, ptr, ptr, ptr, ptr, %struct._address, %struct._address, %struct._address, %struct._address, %struct._address, %struct._address, i32, ptr, i8, [3 x i8], %struct.anon, i32, i32, i32, i32, ptr, i8, ptr, ptr, i16, i16, i32, i32, i16, i32, i32, ptr, ptr, ptr, i8, i8, i16, i16, i16, i32, i16, i16, ptr, ptr, ptr, ptr, ptr, i32, i32 }
%struct.nstime_t = type { i64, i32 }
%struct.anon = type { i8, [3 x i8] }
%struct._asn1_ctx_t = type { i32, i32, i8, ptr, ptr, ptr, ptr, ptr, %struct.anon.0, %struct.anon.3, %struct.anon.4, ptr }
%struct.anon.0 = type { i32, i8, i8, i8, ptr, ptr, i32, i32, ptr, ptr, ptr, %union.anon }
%union.anon = type { %struct.anon.1 }
%struct.anon.1 = type { ptr }
%struct.anon.3 = type { ptr, ptr, ptr }
%struct.anon.4 = type { i32, i8, ptr, i32, i32, ptr, ptr, ptr, %union.anon.5 }
%union.anon.5 = type { %struct.anon.6 }
%struct.anon.6 = type { ptr }

@proto_t38 = internal global i32 0, align 4
@hf_t38_UDPTLPacket_PDU = internal global i32 0, align 4
@ett_t38 = internal global i32 0, align 4
@ett_t38_UDPTLPacket = internal global i32 0, align 4
@ei_t38_malformed = internal global %struct.expert_field zeroinitializer, align 4
@.str.108 = private unnamed_addr constant [5 x i8] c"T.38\00", align 1
@dissect_possible_rtpv2_packets_as_rtp = internal global i8 0, align 1
@global_t38_show_setup_info = internal global i8 1, align 1
@rtp_handle = internal global ptr null, align 8
@primary_part = internal global i8 1, align 1
@Data_Field_item_num = internal global i32 0, align 4
@.str.153 = private unnamed_addr constant [26 x i8] c"ITU-T Recommendation T.38\00", align 1
@p_t38_packet_conv = internal global ptr null, align 8
@.str.154 = private unnamed_addr constant [18 x i8] c"UDP: UDPTLPacket \00", align 1
@.str.155 = private unnamed_addr constant [48 x i8] c"[MALFORMED PACKET or wrong preference settings]\00", align 1
@.str.156 = private unnamed_addr constant [14 x i8] c" [Malformed?]\00", align 1
@Data_Field_field_type_value = internal global i32 0, align 4

; Function Attrs: null_pointer_is_valid sspstrong uwtable
define internal i32 @dissect_t38_UDPTLPacket(ptr noundef %0, i32 noundef %1, ptr noundef %2, ptr noundef %3, i32 noundef %4) #0 {
  %6 = alloca ptr, align 8
  %7 = alloca i32, align 4
  %8 = alloca ptr, align 8
  %9 = alloca ptr, align 8
  %10 = alloca i32, align 4
  store ptr %0, ptr %6, align 8
  store i32 %1, ptr %7, align 4
  store ptr %2, ptr %8, align 8
  store ptr %3, ptr %9, align 8
  store i32 %4, ptr %10, align 4
  store i32 1, ptr @Data_Field_field_type_value, align 4
  %11 = load ptr, ptr %6, align 8
  %12 = load i32, ptr %7, align 4
  %13 = load ptr, ptr %8, align 8
  %14 = load ptr, ptr %9, align 8
  %15 = load i32, ptr %10, align 4
  %16 = load i32, ptr @ett_t38_UDPTLPacket, align 4
  %17 = call i32 @dissect_per_sequence(ptr noundef %11, i32 noundef %12, ptr noundef %13, ptr noundef %14, i32 noundef %15, i32 noundef %16, ptr noundef @UDPTLPacket_sequence)
  store i32 %17, ptr %7, align 4
  %18 = load i32, ptr %7, align 4
  ret i32 %18
}

; Function Attrs: null_pointer_is_valid sspstrong uwtable
define internal i32 @dissect_UDPTLPacket_PDU(ptr noundef %0, ptr noundef %1, ptr noundef %2, ptr noundef %3) #0 {
  %5 = alloca ptr, align 8
  %6 = alloca ptr, align 8
  %7 = alloca ptr, align 8
  %8 = alloca ptr, align 8
  %9 = alloca i32, align 4
  %10 = alloca %struct._asn1_ctx_t, align 8
  store ptr %0, ptr %5, align 8
  store ptr %1, ptr %6, align 8
  store ptr %2, ptr %7, align 8
  store ptr %3, ptr %8, align 8
  call void @llvm.lifetime.start.p0(i64 4, ptr %9) #10
  store i32 0, ptr %9, align 4
  call void @llvm.lifetime.start.p0(i64 208, ptr %10) #10
  %11 = load ptr, ptr %6, align 8
  call void @asn1_ctx_init(ptr noundef %10, i32 noundef 1, i1 noundef zeroext true, ptr noundef %11)
  %12 = load ptr, ptr %5, align 8
  %13 = load i32, ptr %9, align 4
  %14 = load ptr, ptr %7, align 8
  %15 = load i32, ptr @hf_t38_UDPTLPacket_PDU, align 4
  %16 = call i32 @dissect_t38_UDPTLPacket(ptr noundef %12, i32 noundef %13, ptr noundef %10, ptr noundef %14, i32 noundef %15)
  store i32 %16, ptr %9, align 4
  %17 = load i32, ptr %9, align 4
  %18 = add i32 %17, 7
  store i32 %18, ptr %9, align 4
  %19 = load i32, ptr %9, align 4
  %20 = ashr i32 %19, 3
  store i32 %20, ptr %9, align 4
  %21 = load i32, ptr %9, align 4
  call void @llvm.lifetime.end.p0(i64 208, ptr %10) #10
  call void @llvm.lifetime.end.p0(i64 4, ptr %9) #10
  ret i32 %21
}

; Function Attrs: null_pointer_is_valid sspstrong uwtable
define internal i32 @dissect_t38_udp(ptr noundef %0, ptr noundef %1, ptr noundef %2, ptr noundef %3) #0 {
  %5 = alloca i32, align 4
  %6 = alloca ptr, align 8
  %7 = alloca ptr, align 8
  %8 = alloca ptr, align 8
  %9 = alloca ptr, align 8
  %10 = alloca i8, align 1
  %11 = alloca ptr, align 8
  %12 = alloca ptr, align 8
  %13 = alloca i32, align 4
  %14 = alloca i32, align 4
  store ptr %0, ptr %6, align 8
  store ptr %1, ptr %7, align 8
  store ptr %2, ptr %8, align 8
  store ptr %3, ptr %9, align 8
  call void @llvm.lifetime.start.p0(i64 1, ptr %10) #10
  call void @llvm.lifetime.start.p0(i64 8, ptr %11) #10
  call void @llvm.lifetime.start.p0(i64 8, ptr %12) #10
  call void @llvm.lifetime.start.p0(i64 4, ptr %13) #10
  store i32 0, ptr %13, align 4
  %15 = load i8, ptr @dissect_possible_rtpv2_packets_as_rtp, align 1, !range !6, !noundef !7
  %16 = trunc i8 %15 to i1
  br i1 %16, label %17, label %32

17:                                               ; preds = %4
  %18 = load ptr, ptr %6, align 8
  %19 = load i32, ptr %13, align 4
  %20 = call zeroext i8 @tvb_get_uint8(ptr noundef %18, i32 noundef %19)
  store i8 %20, ptr %10, align 1
  %21 = load i8, ptr %10, align 1
  %22 = zext i8 %21 to i32
  %23 = ashr i32 %22, 6
  %24 = icmp eq i32 %23, 2
  br i1 %24, label %25, label %31

25:                                               ; preds = %17
  %26 = load ptr, ptr @rtp_handle, align 8
  %27 = load ptr, ptr %6, align 8
  %28 = load ptr, ptr %7, align 8
  %29 = load ptr, ptr %8, align 8
  %30 = call i32 @call_dissector(ptr noundef %26, ptr noundef %27, ptr noundef %28, ptr noundef %29)
  store i32 %30, ptr %5, align 4
  store i32 1, ptr %14, align 4
  br label %80

31:                                               ; preds = %17
  br label %32

32:                                               ; preds = %31, %4
  %33 = load ptr, ptr %7, align 8
  %34 = getelementptr inbounds nuw %struct._packet_info, ptr %33, i32 0, i32 1
  %35 = load ptr, ptr %34, align 8
  call void @col_set_str(ptr noundef %35, i32 noundef 35, ptr noundef @.str.108)
  %36 = load ptr, ptr %7, align 8
  %37 = getelementptr inbounds nuw %struct._packet_info, ptr %36, i32 0, i32 1
  %38 = load ptr, ptr %37, align 8
  call void @col_clear(ptr noundef %38, i32 noundef 25)
  store i8 1, ptr @primary_part, align 1
  store i32 0, ptr @Data_Field_item_num, align 4
  %39 = load ptr, ptr %8, align 8
  %40 = load i32, ptr @proto_t38, align 4
  %41 = load ptr, ptr %6, align 8
  %42 = call ptr (ptr, i32, ptr, i32, i32, ptr, ...) @proto_tree_add_protocol_format(ptr noundef %39, i32 noundef %40, ptr noundef %41, i32 noundef 0, i32 noundef -1, ptr noundef @.str.153)
  store ptr %42, ptr %11, align 8
  %43 = load ptr, ptr %11, align 8
  %44 = load i32, ptr @ett_t38, align 4
  %45 = call ptr @proto_item_add_subtree(ptr noundef %43, i32 noundef %44)
  store ptr %45, ptr %12, align 8
  %46 = load ptr, ptr %7, align 8
  call void @init_t38_info_conv(ptr noundef %46)
  %47 = load i8, ptr @global_t38_show_setup_info, align 1, !range !6, !noundef !7
  %48 = trunc i8 %47 to i1
  br i1 %48, label %49, label %53

49:                                               ; preds = %32
  %50 = load ptr, ptr %6, align 8
  %51 = load ptr, ptr %12, align 8
  %52 = load ptr, ptr @p_t38_packet_conv, align 8
  call void @show_setup_info(ptr noundef %50, ptr noundef %51, ptr noundef %52)
  br label %53

53:                                               ; preds = %49, %32
  %54 = load ptr, ptr %7, align 8
  %55 = getelementptr inbounds nuw %struct._packet_info, ptr %54, i32 0, i32 1
  %56 = load ptr, ptr %55, align 8
  call void @col_append_str(ptr noundef %56, i32 noundef 25, ptr noundef @.str.154)
  %57 = load ptr, ptr %6, align 8
  %58 = load ptr, ptr %7, align 8
  %59 = load ptr, ptr %12, align 8
  %60 = call i32 @dissect_UDPTLPacket_PDU(ptr noundef %57, ptr noundef %58, ptr noundef %59, ptr noundef null)
  store i32 %60, ptr %13, align 4
  %61 = load ptr, ptr %6, align 8
  %62 = load i32, ptr %13, align 4
  %63 = call i32 @tvb_reported_length_remaining(ptr noundef %61, i32 noundef %62)
  %64 = icmp sgt i32 %63, 0
  br i1 %64, label %65, label %77

65:                                               ; preds = %53
  %66 = load ptr, ptr %12, align 8
  %67 = load ptr, ptr %7, align 8
  %68 = load ptr, ptr %6, align 8
  %69 = load i32, ptr %13, align 4
  %70 = load ptr, ptr %6, align 8
  %71 = load i32, ptr %13, align 4
  %72 = call i32 @tvb_reported_length_remaining(ptr noundef %70, i32 noundef %71)
  %73 = call ptr (ptr, ptr, ptr, ptr, i32, i32, ptr, ...) @proto_tree_add_expert_format(ptr noundef %66, ptr noundef %67, ptr noundef @ei_t38_malformed, ptr noundef %68, i32 noundef %69, i32 noundef %72, ptr noundef @.str.155)
  %74 = load ptr, ptr %7, align 8
  %75 = getelementptr inbounds nuw %struct._packet_info, ptr %74, i32 0, i32 1
  %76 = load ptr, ptr %75, align 8
  call void @col_append_str(ptr noundef %76, i32 noundef 25, ptr noundef @.str.156)
  br label %77

77:                                               ; preds = %65, %53
  %78 = load ptr, ptr %6, align 8
  %79 = call i32 @tvb_captured_length(ptr noundef %78)
  store i32 %79, ptr %5, align 4
  store i32 1, ptr %14, align 4
  br label %80

80:                                               ; preds = %77, %25
  call void @llvm.lifetime.end.p0(i64 4, ptr %13) #10
  call void @llvm.lifetime.end.p0(i64 8, ptr %12) #10
  call void @llvm.lifetime.end.p0(i64 8, ptr %11) #10
  call void @llvm.lifetime.end.p0(i64 1, ptr %10) #10
  %81 = load i32, ptr %5, align 4
  ret i32 %81
}