; Function Attrs: null_pointer_is_valid sspstrong uwtable
define internal i32 @dissect_t38_udp(ptr noundef %0, ptr noundef %1, ptr noundef %2, ptr readnone captures(none) %3) #0 {
  %5 = alloca %struct._asn1_ctx_t, align 8
  %6 = load i8, ptr @dissect_possible_rtpv2_packets_as_rtp, align 1, !range !6, !noundef !7
  %7 = trunc nuw i8 %6 to i1
  br i1 %7, label %8, label %14

8:                                                ; preds = %4
  %9 = tail call zeroext i8 @tvb_get_uint8(ptr noundef %0, i32 noundef 0)
  %10 = icmp slt i8 %9, -64
  br i1 %10, label %11, label %14

11:                                               ; preds = %8
  %12 = load ptr, ptr @rtp_handle, align 8
  %13 = tail call i32 @call_dissector(ptr noundef %12, ptr noundef %0, ptr noundef %1, ptr noundef %2)
  br label %41

14:                                               ; preds = %8, %4
  %15 = getelementptr inbounds nuw i8, ptr %1, i64 8
  %16 = load ptr, ptr %15, align 8
  tail call void @col_set_str(ptr noundef %16, i32 noundef 35, ptr noundef nonnull @.str.108)
  %17 = load ptr, ptr %15, align 8
  tail call void @col_clear(ptr noundef %17, i32 noundef 25)
  store i1 false, ptr @primary_part, align 1
  store i32 0, ptr @Data_Field_item_num, align 4
  %18 = load i32, ptr @proto_t38, align 4
  %19 = tail call ptr (ptr, i32, ptr, i32, i32, ptr, ...) @proto_tree_add_protocol_format(ptr noundef %2, i32 noundef %18, ptr noundef %0, i32 noundef 0, i32 noundef -1, ptr noundef nonnull @.str.153)
  %20 = load i32, ptr @ett_t38, align 4
  %21 = tail call ptr @proto_item_add_subtree(ptr noundef %19, i32 noundef %20)
  tail call fastcc void @init_t38_info_conv(ptr noundef %1)
  %22 = load i8, ptr @global_t38_show_setup_info, align 1, !range !6, !noundef !7
  %23 = trunc nuw i8 %22 to i1
  br i1 %23, label %24, label %26

24:                                               ; preds = %14
  %25 = load ptr, ptr @p_t38_packet_conv, align 8
  tail call fastcc void @show_setup_info(ptr noundef %0, ptr noundef %21, ptr noundef %25)
  br label %26

26:                                               ; preds = %24, %14
  %27 = load ptr, ptr %15, align 8
  tail call void @col_append_str(ptr noundef %27, i32 noundef 25, ptr noundef nonnull @.str.154)
  call void @llvm.lifetime.start.p0(i64 208, ptr nonnull %5) #10
  call void @asn1_ctx_init(ptr noundef nonnull %5, i32 noundef 1, i1 noundef zeroext true, ptr noundef %1)
  %28 = load i32, ptr @hf_t38_UDPTLPacket_PDU, align 4
  store i32 1, ptr @Data_Field_field_type_value, align 4
  %29 = load i32, ptr @ett_t38_UDPTLPacket, align 4
  %30 = call i32 @dissect_per_sequence(ptr noundef %0, i32 noundef 0, ptr noundef nonnull %5, ptr noundef %21, i32 noundef %28, i32 noundef %29, ptr noundef nonnull @UDPTLPacket_sequence)
  %31 = add i32 %30, 7
  %32 = ashr i32 %31, 3
  call void @llvm.lifetime.end.p0(i64 208, ptr nonnull %5) #10
  %33 = call i32 @tvb_reported_length_remaining(ptr noundef %0, i32 noundef %32)
  %34 = icmp sgt i32 %33, 0
  br i1 %34, label %35, label %39

35:                                               ; preds = %26
  %36 = call i32 @tvb_reported_length_remaining(ptr noundef %0, i32 noundef %32)
  %37 = call ptr (ptr, ptr, ptr, ptr, i32, i32, ptr, ...) @proto_tree_add_expert_format(ptr noundef %21, ptr noundef %1, ptr noundef nonnull @ei_t38_malformed, ptr noundef %0, i32 noundef %32, i32 noundef %36, ptr noundef nonnull @.str.155)
  %38 = load ptr, ptr %15, align 8
  call void @col_append_str(ptr noundef %38, i32 noundef 25, ptr noundef nonnull @.str.156)
  br label %39

39:                                               ; preds = %35, %26
  %40 = call i32 @tvb_captured_length(ptr noundef %0)
  br label %41

41:                                               ; preds = %39, %11
  %.0 = phi i32 [ %13, %11 ], [ %40, %39 ]
  ret i32 %.0
}